; ModuleID = '1/1134.c'
source_filename = "1/1134.c"
target datalayout = "e-m:e-p270:32:32-p271:32:32-p272:64:64-i64:64-f80:128-n8:16:32:64-S128"
target triple = "x86_64-pc-linux-gnu"

@.str = private unnamed_addr constant [3 x i8] c"%d\00", align 1
@.str.1 = private unnamed_addr constant [4 x i8] c"%d\0A\00", align 1

; Function Attrs: noinline nounwind uwtable
define dso_local i32 @qipa(i32 %0, i32 %1) #0 {
  %3 = alloca i32, align 4
  %4 = alloca i32, align 4
  %5 = alloca i32, align 4
  %6 = alloca i32, align 4
  %7 = alloca i32, align 4
  %8 = alloca i32, align 4
  store i32 %0, i32* %4, align 4
  store i32 %1, i32* %5, align 4
  store i32 0, i32* %8, align 4
  %9 = load i32, i32* %4, align 4
  %10 = icmp eq i32 %9, 1
  br i1 %10, label %11, label %12

11:                                               ; preds = %2
  store i32 1, i32* %3, align 4
  br label %40

12:                                               ; preds = %2
  %13 = load i32, i32* %4, align 4
  store i32 %13, i32* %6, align 4
  br label %14

14:                                               ; preds = %35, %12
  %15 = load i32, i32* %6, align 4
  %16 = icmp sgt i32 %15, 1
  br i1 %16, label %17, label %38

17:                                               ; preds = %14
  %18 = load i32, i32* %4, align 4
  %19 = load i32, i32* %6, align 4
  %20 = srem i32 %18, %19
  %21 = icmp eq i32 %20, 0
  br i1 %21, label %22, label %34

22:                                               ; preds = %17
  %23 = load i32, i32* %6, align 4
  %24 = load i32, i32* %5, align 4
  %25 = icmp sle i32 %23, %24
  br i1 %25, label %26, label %34

26:                                               ; preds = %22
  %27 = load i32, i32* %4, align 4
  %28 = load i32, i32* %6, align 4
  %29 = sdiv i32 %27, %28
  %30 = load i32, i32* %6, align 4
  %31 = call i32 @qipa(i32 %29, i32 %30)
  %32 = load i32, i32* %8, align 4
  %33 = add nsw i32 %32, %31
  store i32 %33, i32* %8, align 4
  br label %34

34:                                               ; preds = %26, %22, %17
  br label %35

35:                                               ; preds = %34
  %36 = load i32, i32* %6, align 4
  %37 = add nsw i32 %36, -1
  store i32 %37, i32* %6, align 4
  br label %14

38:                                               ; preds = %14
  %39 = load i32, i32* %8, align 4
  store i32 %39, i32* %3, align 4
  br label %40

40:                                               ; preds = %38, %11
  %41 = load i32, i32* %3, align 4
  ret i32 %41
}

; Function Attrs: noinline nounwind uwtable
define dso_local i32 @main() #0 {
  %1 = alloca i32, align 4
  %2 = alloca i32, align 4
  %3 = alloca i32, align 4
  %4 = alloca i32, align 4
  %5 = alloca i32, align 4
  %6 = alloca i32, align 4
  store i32 0, i32* %1, align 4
  %7 = call i32 (i8*, ...) @__isoc99_scanf(i8* getelementptr inbounds ([3 x i8], [3 x i8]* @.str, i64 0, i64 0), i32* %4)
  store i32 1, i32* %2, align 4
  br label %8

8:                                                ; preds = %19, %0
  %9 = load i32, i32* %2, align 4
  %10 = load i32, i32* %4, align 4
  %11 = icmp sle i32 %9, %10
  br i1 %11, label %12, label %22

12:                                               ; preds = %8
  %13 = call i32 (i8*, ...) @__isoc99_scanf(i8* getelementptr inbounds ([3 x i8], [3 x i8]* @.str, i64 0, i64 0), i32* %5)
  %14 = load i32, i32* %5, align 4
  %15 = load i32, i32* %5, align 4
  %16 = call i32 @qipa(i32 %14, i32 %15)
  store i32 %16, i32* %6, align 4
  %17 = load i32, i32* %6, align 4
  %18 = call i32 (i8*, ...) @printf(i8* getelementptr inbounds ([4 x i8], [4 x i8]* @.str.1, i64 0, i64 0), i32 %17)
  br label %19

19:                                               ; preds = %12
  %20 = load i32, i32* %2, align 4
  %21 = add nsw i32 %20, 1
  store i32 %21, i32* %2, align 4
  br label %8

22:                                               ; preds = %8
  ret i32 0
}

declare dso_local i32 @__isoc99_scanf(i8*, ...) #1

declare dso_local i32 @printf(i8*, ...) #1


!llvm.module.flags = !{!0}
!llvm.ident = !{!1}

!0 = !{i32 1, !"wchar_size", i32 4}
!1 = !{!"clang version 10.0.0-4ubuntu1 "}
